; Function Attrs: nounwind uwtable
define void @Aig_ManSeqCleanup_rec(ptr noundef readonly captures(none) %0, ptr noundef captures(none) %1, ptr noundef captures(none) %2) local_unnamed_addr #0 {
  %4 = getelementptr i8, ptr %0, i64 312
  %.val2435 = load i32, ptr %4, align 8, !tbaa !51
  %5 = getelementptr i8, ptr %1, i64 32
  %.val2536 = load i32, ptr %5, align 8, !tbaa !52
  %.not37 = icmp eq i32 %.val2536, %.val2435
  br i1 %.not37, label %.loopexit, label %.lr.ph

.lr.ph:                                           ; preds = %3, %tailrecurse.backedge
  %.val2441 = phi i32 [ %.val24, %tailrecurse.backedge ], [ %.val2435, %3 ]
  %6 = phi ptr [ %44, %tailrecurse.backedge ], [ %5, %3 ]
  %.tr3238 = phi ptr [ %.tr32.be, %tailrecurse.backedge ], [ %1, %3 ]
  store i32 %.val2441, ptr %6, align 8, !tbaa !52
  %7 = getelementptr i8, ptr %.tr3238, i64 24
  %.val27 = load i64, ptr %7, align 8
  %8 = and i64 %.val27, 7
  switch i64 %8, label %45 [
    i64 2, label %9
    i64 3, label %42
    i64 4, label %42
  ]

9:                                                ; preds = %.lr.ph
  %10 = load ptr, ptr %.tr3238, align 8, !tbaa !35
  %11 = getelementptr inbounds nuw i8, ptr %2, i64 4
  %12 = load i32, ptr %11, align 4, !tbaa !21
  %13 = load i32, ptr %2, align 8, !tbaa !53
  %14 = icmp eq i32 %12, %13
  br i1 %14, label %15, label %.Vec_PtrGrow.exit11_crit_edge.i

.Vec_PtrGrow.exit11_crit_edge.i:                  ; preds = %9
  %.phi.trans.insert.i = getelementptr inbounds nuw i8, ptr %2, i64 8
  %.pre.i = load ptr, ptr %.phi.trans.insert.i, align 8, !tbaa !37
  br label %Vec_PtrPush.exit

15:                                               ; preds = %9
  %16 = icmp slt i32 %12, 16
  br i1 %16, label %17, label %25

17:                                               ; preds = %15
  %18 = getelementptr inbounds nuw i8, ptr %2, i64 8
  %19 = load ptr, ptr %18, align 8, !tbaa !37
  %.not9.i.i = icmp eq ptr %19, null
  br i1 %.not9.i.i, label %22, label %20

20:                                               ; preds = %17
  %21 = tail call dereferenceable_or_null(128) ptr @realloc(ptr noundef nonnull %19, i64 noundef 128) #18
  br label %Vec_PtrGrow.exit.i

22:                                               ; preds = %17
  %23 = tail call noalias dereferenceable_or_null(128) ptr @malloc(i64 noundef 128) #17
  br label %Vec_PtrGrow.exit.i

Vec_PtrGrow.exit.i:                               ; preds = %22, %20
  %24 = phi ptr [ %21, %20 ], [ %23, %22 ]
  store ptr %24, ptr %18, align 8, !tbaa !37
  store i32 16, ptr %2, align 8, !tbaa !53
  br label %Vec_PtrPush.exit

25:                                               ; preds = %15
  %26 = shl nuw nsw i32 %12, 1
  %27 = getelementptr inbounds nuw i8, ptr %2, i64 8
  %28 = load ptr, ptr %27, align 8, !tbaa !37
  %.not9.i10.i = icmp eq ptr %28, null
  %29 = zext nneg i32 %26 to i64
  %30 = shl nuw nsw i64 %29, 3
  br i1 %.not9.i10.i, label %33, label %31

31:                                               ; preds = %25
  %32 = tail call ptr @realloc(ptr noundef nonnull %28, i64 noundef %30) #18
  br label %35

33:                                               ; preds = %25
  %34 = tail call noalias ptr @malloc(i64 noundef %30) #17
  br label %35

35:                                               ; preds = %33, %31
  %36 = phi ptr [ %32, %31 ], [ %34, %33 ]
  store ptr %36, ptr %27, align 8, !tbaa !37
  store i32 %26, ptr %2, align 8, !tbaa !53
  br label %Vec_PtrPush.exit

Vec_PtrPush.exit:                                 ; preds = %.Vec_PtrGrow.exit11_crit_edge.i, %Vec_PtrGrow.exit.i, %35
  %37 = phi ptr [ %.pre.i, %.Vec_PtrGrow.exit11_crit_edge.i ], [ %36, %35 ], [ %24, %Vec_PtrGrow.exit.i ]
  %38 = load i32, ptr %11, align 4, !tbaa !21
  %39 = add nsw i32 %38, 1
  store i32 %39, ptr %11, align 4, !tbaa !21
  %40 = sext i32 %38 to i64
  %41 = getelementptr inbounds ptr, ptr %37, i64 %40
  store ptr %10, ptr %41, align 8, !tbaa !38
  br label %.loopexit

42:                                               ; preds = %.lr.ph, %.lr.ph
  %43 = getelementptr i8, ptr %.tr3238, i64 8
  br label %tailrecurse.backedge

tailrecurse.backedge:                             ; preds = %42, %45
  %.val24 = phi i32 [ %.val2441, %42 ], [ %.val24.pre, %45 ]
  %.tr32.be.in.in.in.in = phi ptr [ %43, %42 ], [ %50, %45 ]
  %.tr32.be.in.in.in = load ptr, ptr %.tr32.be.in.in.in.in, align 8, !tbaa !54
  %.tr32.be.in.in = ptrtoint ptr %.tr32.be.in.in.in to i64
  %.tr32.be.in = and i64 %.tr32.be.in.in, -2
  %.tr32.be = inttoptr i64 %.tr32.be.in to ptr
  %44 = getelementptr i8, ptr %.tr32.be, i64 32
  %.val25 = load i32, ptr %44, align 8, !tbaa !52
  %.not = icmp eq i32 %.val25, %.val24
  br i1 %.not, label %.loopexit, label %.lr.ph

45:                                               ; preds = %.lr.ph
  %46 = getelementptr i8, ptr %.tr3238, i64 8
  %.val22 = load ptr, ptr %46, align 8, !tbaa !47
  %47 = ptrtoint ptr %.val22 to i64
  %48 = and i64 %47, -2
  %49 = inttoptr i64 %48 to ptr
  tail call void @Aig_ManSeqCleanup_rec(ptr noundef nonnull %0, ptr noundef %49, ptr noundef %2)
  %50 = getelementptr i8, ptr %.tr3238, i64 16
  %.val24.pre = load i32, ptr %4, align 8, !tbaa !51
  br label %tailrecurse.backedge

.loopexit:                                        ; preds = %tailrecurse.backedge, %3, %Vec_PtrPush.exit
  ret void
}